target datalayout = "e-m:e-p270:32:32-p271:32:32-p272:64:64-i64:64-i128:128-f80:128-n8:16:32:64-S128"
target triple = "x86_64-pc-linux-gnu"

%struct.pmix_proc = type { [256 x i8], i32 }
%struct.pmix_proc_info = type { %struct.pmix_proc, ptr, ptr, i32, i32, i8 }

@.str = private unnamed_addr constant [2 x i8] c" \00", align 1
@.str.92 = private unnamed_addr constant [4 x i8] c"%s\09\00", align 1
@.str.93 = private unnamed_addr constant [103 x i8] c"%sData type: PMIX_PROC_INFO\09Value:\0A%s\0A%sHostname: %s\09Executable: %s\0A%sPid: %lu\09Exit code: %d\09State: %s\00", align 1

; Function Attrs: nounwind uwtable
define i32 @pmix20_bfrop_print_pinfo(ptr noundef %0, ptr noundef %1, ptr noundef %2, i16 noundef zeroext %3) #0 {
  %5 = alloca i32, align 4
  %6 = alloca ptr, align 8
  %7 = alloca ptr, align 8
  %8 = alloca ptr, align 8
  %9 = alloca i16, align 2
  %10 = alloca ptr, align 8
  %11 = alloca i32, align 4
  %12 = alloca ptr, align 8
  %13 = alloca ptr, align 8
  %14 = alloca i32, align 4
  store ptr %0, ptr %6, align 8, !tbaa !3
  store ptr %1, ptr %7, align 8, !tbaa !8
  store ptr %2, ptr %8, align 8, !tbaa !82
  store i16 %3, ptr %9, align 2, !tbaa !11
  call void @llvm.lifetime.start.p0(i64 8, ptr %10) #7
  call void @llvm.lifetime.start.p0(i64 4, ptr %11) #7
  store i32 0, ptr %11, align 4, !tbaa !21
  call void @llvm.lifetime.start.p0(i64 8, ptr %12) #7
  call void @llvm.lifetime.start.p0(i64 8, ptr %13) #7
  %15 = load ptr, ptr %7, align 8, !tbaa !8
  %16 = icmp eq ptr null, %15
  br i1 %16, label %17, label %22

17:                                               ; preds = %4
  %18 = call i32 (ptr, ptr, ...) @asprintf(ptr noundef %10, ptr noundef @.str) #7
  %19 = icmp sgt i32 0, %18
  br i1 %19, label %20, label %21

20:                                               ; preds = %17
  store i32 -32, ptr %5, align 4
  store i32 1, ptr %14, align 4
  br label %73

21:                                               ; preds = %17
  br label %24

22:                                               ; preds = %4
  %23 = load ptr, ptr %7, align 8, !tbaa !8
  store ptr %23, ptr %10, align 8, !tbaa !8
  br label %24

24:                                               ; preds = %22, %21
  %25 = load ptr, ptr %10, align 8, !tbaa !8
  %26 = call i32 (ptr, ptr, ...) @asprintf(ptr noundef %12, ptr noundef @.str.92, ptr noundef %25) #7
  %27 = icmp sgt i32 0, %26
  br i1 %27, label %28, label %29

28:                                               ; preds = %24
  store i32 -32, ptr %11, align 4, !tbaa !21
  br label %65

29:                                               ; preds = %24
  %30 = load ptr, ptr %12, align 8, !tbaa !8
  %31 = load ptr, ptr %8, align 8, !tbaa !82
  %32 = getelementptr inbounds nuw %struct.pmix_proc_info, ptr %31, i32 0, i32 0
  %33 = call i32 @pmix20_bfrop_print_proc(ptr noundef %13, ptr noundef %30, ptr noundef %32, i16 noundef zeroext 22)
  store i32 %33, ptr %11, align 4, !tbaa !21
  %34 = icmp ne i32 0, %33
  br i1 %34, label %35, label %37

35:                                               ; preds = %29
  %36 = load ptr, ptr %12, align 8, !tbaa !8
  call void @free(ptr noundef %36) #7
  br label %65

37:                                               ; preds = %29
  %38 = load ptr, ptr %6, align 8, !tbaa !3
  %39 = load ptr, ptr %10, align 8, !tbaa !8
  %40 = load ptr, ptr %13, align 8, !tbaa !8
  %41 = load ptr, ptr %12, align 8, !tbaa !8
  %42 = load ptr, ptr %8, align 8, !tbaa !82
  %43 = getelementptr inbounds nuw %struct.pmix_proc_info, ptr %42, i32 0, i32 1
  %44 = load ptr, ptr %43, align 8, !tbaa !61
  %45 = load ptr, ptr %8, align 8, !tbaa !82
  %46 = getelementptr inbounds nuw %struct.pmix_proc_info, ptr %45, i32 0, i32 2
  %47 = load ptr, ptr %46, align 8, !tbaa !62
  %48 = load ptr, ptr %12, align 8, !tbaa !8
  %49 = load ptr, ptr %8, align 8, !tbaa !82
  %50 = getelementptr inbounds nuw %struct.pmix_proc_info, ptr %49, i32 0, i32 3
  %51 = load i32, ptr %50, align 8, !tbaa !63
  %52 = sext i32 %51 to i64
  %53 = load ptr, ptr %8, align 8, !tbaa !82
  %54 = getelementptr inbounds nuw %struct.pmix_proc_info, ptr %53, i32 0, i32 4
  %55 = load i32, ptr %54, align 4, !tbaa !84
  %56 = load ptr, ptr %8, align 8, !tbaa !82
  %57 = getelementptr inbounds nuw %struct.pmix_proc_info, ptr %56, i32 0, i32 5
  %58 = load i8, ptr %57, align 8, !tbaa !85
  %59 = call ptr @PMIx_Proc_state_string(i8 noundef zeroext %58)
  %60 = call i32 (ptr, ptr, ...) @asprintf(ptr noundef %38, ptr noundef @.str.93, ptr noundef %39, ptr noundef %40, ptr noundef %41, ptr noundef %44, ptr noundef %47, ptr noundef %48, i64 noundef %52, i32 noundef %55, ptr noundef %59) #7
  %61 = icmp sgt i32 0, %60
  br i1 %61, label %62, label %64

62:                                               ; preds = %37
  %63 = load ptr, ptr %12, align 8, !tbaa !8
  call void @free(ptr noundef %63) #7
  store i32 -32, ptr %11, align 4, !tbaa !21
  br label %64

64:                                               ; preds = %62, %37
  br label %65

65:                                               ; preds = %64, %35, %28
  %66 = load ptr, ptr %10, align 8, !tbaa !8
  %67 = load ptr, ptr %7, align 8, !tbaa !8
  %68 = icmp ne ptr %66, %67
  br i1 %68, label %69, label %71

69:                                               ; preds = %65
  %70 = load ptr, ptr %10, align 8, !tbaa !8
  call void @free(ptr noundef %70) #7
  br label %71

71:                                               ; preds = %69, %65
  %72 = load i32, ptr %11, align 4, !tbaa !21
  store i32 %72, ptr %5, align 4
  store i32 1, ptr %14, align 4
  br label %73

73:                                               ; preds = %71, %20
  call void @llvm.lifetime.end.p0(i64 8, ptr %13) #7
  call void @llvm.lifetime.end.p0(i64 8, ptr %12) #7
  call void @llvm.lifetime.end.p0(i64 4, ptr %11) #7
  call void @llvm.lifetime.end.p0(i64 8, ptr %10) #7
  %74 = load i32, ptr %5, align 4
  ret i32 %74
}