; Function Attrs: nounwind uwtable
define range(i32 -32, 1) i32 @pmix20_bfrop_print_pinfo(ptr noundef %0, ptr noundef %1, ptr noundef %2, i16 noundef zeroext %3) local_unnamed_addr #0 {
  %5 = alloca ptr, align 8
  %6 = alloca ptr, align 8
  %7 = alloca ptr, align 8
  call void @llvm.lifetime.start.p0(i64 8, ptr nonnull %5) #7
  call void @llvm.lifetime.start.p0(i64 8, ptr nonnull %6) #7
  call void @llvm.lifetime.start.p0(i64 8, ptr nonnull %7) #7
  %8 = icmp eq ptr %1, null
  br i1 %8, label %9, label %12

9:                                                ; preds = %4
  %10 = call i32 (ptr, ptr, ...) @asprintf(ptr noundef nonnull %5, ptr noundef nonnull @.str) #7
  %11 = icmp slt i32 %10, 0
  br i1 %11, label %42, label %._crit_edge

._crit_edge:                                      ; preds = %9
  %.pre = load ptr, ptr %5, align 8, !tbaa !20
  br label %13

12:                                               ; preds = %4
  store ptr %1, ptr %5, align 8, !tbaa !20
  br label %13

13:                                               ; preds = %._crit_edge, %12
  %14 = phi ptr [ %.pre, %._crit_edge ], [ %1, %12 ]
  %15 = call i32 (ptr, ptr, ...) @asprintf(ptr noundef nonnull %6, ptr noundef nonnull @.str.92, ptr noundef %14) #7
  %16 = icmp slt i32 %15, 0
  br i1 %16, label %39, label %17

17:                                               ; preds = %13
  %18 = load ptr, ptr %6, align 8, !tbaa !20
  %19 = call i32 @pmix20_bfrop_print_proc(ptr noundef nonnull %7, ptr noundef %18, ptr noundef %2, i16 zeroext poison)
  %.not = icmp eq i32 %19, 0
  br i1 %.not, label %20, label %.sink.split

20:                                               ; preds = %17
  %21 = load ptr, ptr %5, align 8, !tbaa !20
  %22 = load ptr, ptr %7, align 8, !tbaa !20
  %23 = load ptr, ptr %6, align 8, !tbaa !20
  %24 = getelementptr inbounds nuw i8, ptr %2, i64 264
  %25 = load ptr, ptr %24, align 8, !tbaa !43
  %26 = getelementptr inbounds nuw i8, ptr %2, i64 272
  %27 = load ptr, ptr %26, align 8, !tbaa !44
  %28 = getelementptr inbounds nuw i8, ptr %2, i64 280
  %29 = load i32, ptr %28, align 8, !tbaa !45
  %30 = sext i32 %29 to i64
  %31 = getelementptr inbounds nuw i8, ptr %2, i64 284
  %32 = load i32, ptr %31, align 4, !tbaa !52
  %33 = getelementptr inbounds nuw i8, ptr %2, i64 288
  %34 = load i8, ptr %33, align 8, !tbaa !53
  %35 = call ptr @PMIx_Proc_state_string(i8 noundef zeroext %34) #7
  %36 = call i32 (ptr, ptr, ...) @asprintf(ptr noundef %0, ptr noundef nonnull @.str.93, ptr noundef %21, ptr noundef %22, ptr noundef %23, ptr noundef %25, ptr noundef %27, ptr noundef %23, i64 noundef %30, i32 noundef %32, ptr noundef %35) #7
  %37 = icmp slt i32 %36, 0
  br i1 %37, label %.sink.split, label %39

.sink.split:                                      ; preds = %20, %17
  %.0.ph = phi i32 [ %19, %17 ], [ -32, %20 ]
  %38 = load ptr, ptr %6, align 8, !tbaa !20
  call void @free(ptr noundef %38) #7
  br label %39

39:                                               ; preds = %.sink.split, %13, %20
  %.0 = phi i32 [ 0, %20 ], [ -32, %13 ], [ %.0.ph, %.sink.split ]
  %40 = load ptr, ptr %5, align 8, !tbaa !20
  %.not15 = icmp eq ptr %40, %1
  br i1 %.not15, label %42, label %41

41:                                               ; preds = %39
  call void @free(ptr noundef %40) #7
  br label %42

42:                                               ; preds = %39, %41, %9
  %.011 = phi i32 [ -32, %9 ], [ %.0, %41 ], [ %.0, %39 ]
  call void @llvm.lifetime.end.p0(i64 8, ptr nonnull %7) #7
  call void @llvm.lifetime.end.p0(i64 8, ptr nonnull %6) #7
  call void @llvm.lifetime.end.p0(i64 8, ptr nonnull %5) #7
  ret i32 %.011
}